; Function Attrs: nounwind uwtable
define dso_local range(i32 -2147483647, -2147483648) i32 @uv_kill(i32 noundef %0, i32 noundef %1) local_unnamed_addr #0 {
  %3 = tail call i32 @kill(i32 noundef %0, i32 noundef %1) #12
  %.not = icmp eq i32 %3, 0
  br i1 %.not, label %8, label %4

4:                                                ; preds = %2
  %5 = tail call ptr @__errno_location() #13
  %6 = load i32, ptr %5, align 4
  %7 = sub nsw i32 0, %6
  br label %8

8:                                                ; preds = %2, %4
  %.0 = phi i32 [ %7, %4 ], [ 0, %2 ]
  ret i32 %.0
}